target datalayout = "e-m:e-p270:32:32-p271:32:32-p272:64:64-i64:64-i128:128-f80:128-n8:16:32:64-S128"
target triple = "x86_64-unknown-linux-gnu"

; Function Attrs: mustprogress nounwind uwtable
define hidden noundef i32 @_Z17bcdec__unquantizeiii(i32 noundef %val, i32 noundef %bits, i32 noundef %isSigned) #4 {
entry:
  %val.addr = alloca i32, align 4
  %bits.addr = alloca i32, align 4
  %isSigned.addr = alloca i32, align 4
  %unq = alloca i32, align 4
  %s = alloca i32, align 4
  store i32 %val, ptr %val.addr, align 4
  store i32 %bits, ptr %bits.addr, align 4
  store i32 %isSigned, ptr %isSigned.addr, align 4
  store i32 0, ptr %s, align 4
  %0 = load i32, ptr %isSigned.addr, align 4
  %tobool = icmp ne i32 %0, 0
  br i1 %tobool, label %if.else11, label %if.then

if.then:                                          ; preds = %entry
  %1 = load i32, ptr %bits.addr, align 4
  %cmp = icmp sge i32 %1, 15
  br i1 %cmp, label %if.then1, label %if.else

if.then1:                                         ; preds = %if.then
  %2 = load i32, ptr %val.addr, align 4
  store i32 %2, ptr %unq, align 4
  br label %if.end10

if.else:                                          ; preds = %if.then
  %3 = load i32, ptr %val.addr, align 4
  %tobool2 = icmp ne i32 %3, 0
  br i1 %tobool2, label %if.else4, label %if.then3

if.then3:                                         ; preds = %if.else
  store i32 0, ptr %unq, align 4
  br label %if.end9

if.else4:                                         ; preds = %if.else
  %4 = load i32, ptr %val.addr, align 4
  %5 = load i32, ptr %bits.addr, align 4
  %shl = shl i32 1, %5
  %sub = sub nsw i32 %shl, 1
  %cmp5 = icmp eq i32 %4, %sub
  br i1 %cmp5, label %if.then6, label %if.else7

if.then6:                                         ; preds = %if.else4
  store i32 65535, ptr %unq, align 4
  br label %if.end

if.else7:                                         ; preds = %if.else4
  %6 = load i32, ptr %val.addr, align 4
  %shl8 = shl i32 %6, 16
  %add = add nsw i32 %shl8, 32768
  %7 = load i32, ptr %bits.addr, align 4
  %shr = ashr i32 %add, %7
  store i32 %shr, ptr %unq, align 4
  br label %if.end

if.end:                                           ; preds = %if.else7, %if.then6
  br label %if.end9

if.end9:                                          ; preds = %if.end, %if.then3
  br label %if.end10

if.end10:                                         ; preds = %if.end9, %if.then1
  br label %if.end39

if.else11:                                        ; preds = %entry
  %8 = load i32, ptr %bits.addr, align 4
  %cmp12 = icmp sge i32 %8, 16
  br i1 %cmp12, label %if.then13, label %if.else14

if.then13:                                        ; preds = %if.else11
  %9 = load i32, ptr %val.addr, align 4
  store i32 %9, ptr %unq, align 4
  br label %if.end38

if.else14:                                        ; preds = %if.else11
  %10 = load i32, ptr %val.addr, align 4
  %cmp15 = icmp slt i32 %10, 0
  br i1 %cmp15, label %if.then16, label %if.end18

if.then16:                                        ; preds = %if.else14
  store i32 1, ptr %s, align 4
  %11 = load i32, ptr %val.addr, align 4
  %sub17 = sub nsw i32 0, %11
  store i32 %sub17, ptr %val.addr, align 4
  br label %if.end18

if.end18:                                         ; preds = %if.then16, %if.else14
  %12 = load i32, ptr %val.addr, align 4
  %cmp19 = icmp eq i32 %12, 0
  br i1 %cmp19, label %if.then20, label %if.else21

if.then20:                                        ; preds = %if.end18
  store i32 0, ptr %unq, align 4
  br label %if.end33

if.else21:                                        ; preds = %if.end18
  %13 = load i32, ptr %val.addr, align 4
  %14 = load i32, ptr %bits.addr, align 4
  %sub22 = sub nsw i32 %14, 1
  %shl23 = shl i32 1, %sub22
  %sub24 = sub nsw i32 %shl23, 1
  %cmp25 = icmp sge i32 %13, %sub24
  br i1 %cmp25, label %if.then26, label %if.else27

if.then26:                                        ; preds = %if.else21
  store i32 32767, ptr %unq, align 4
  br label %if.end32

if.else27:                                        ; preds = %if.else21
  %15 = load i32, ptr %val.addr, align 4
  %shl28 = shl i32 %15, 15
  %add29 = add nsw i32 %shl28, 16384
  %16 = load i32, ptr %bits.addr, align 4
  %sub30 = sub nsw i32 %16, 1
  %shr31 = ashr i32 %add29, %sub30
  store i32 %shr31, ptr %unq, align 4
  br label %if.end32

if.end32:                                         ; preds = %if.else27, %if.then26
  br label %if.end33

if.end33:                                         ; preds = %if.end32, %if.then20
  %17 = load i32, ptr %s, align 4
  %tobool34 = icmp ne i32 %17, 0
  br i1 %tobool34, label %if.then35, label %if.end37

if.then35:                                        ; preds = %if.end33
  %18 = load i32, ptr %unq, align 4
  %sub36 = sub nsw i32 0, %18
  store i32 %sub36, ptr %unq, align 4
  br label %if.end37

if.end37:                                         ; preds = %if.then35, %if.end33
  br label %if.end38

if.end38:                                         ; preds = %if.end37, %if.then13
  br label %if.end39

if.end39:                                         ; preds = %if.end38, %if.end10
  %19 = load i32, ptr %unq, align 4
  ret i32 %19
}