; Function Attrs: mustprogress nofree norecurse nosync nounwind willreturn memory(none) uwtable
define hidden noundef i32 @_Z17bcdec__unquantizeiii(i32 noundef %val, i32 noundef %bits, i32 noundef %isSigned) local_unnamed_addr #8 {
entry:
  %tobool.not = icmp eq i32 %isSigned, 0
  br i1 %tobool.not, label %if.then, label %if.else11

if.then:                                          ; preds = %entry
  %cmp = icmp sgt i32 %bits, 14
  br i1 %cmp, label %if.end39, label %if.else

if.else:                                          ; preds = %if.then
  %tobool2.not = icmp eq i32 %val, 0
  br i1 %tobool2.not, label %if.end39, label %if.else4

if.else4:                                         ; preds = %if.else
  %notmask = shl nsw i32 -1, %bits
  %0 = xor i32 %notmask, %val
  %cmp5 = icmp eq i32 %0, -1
  br i1 %cmp5, label %if.end39, label %if.else7

if.else7:                                         ; preds = %if.else4
  %shl8 = shl i32 %val, 16
  %add = or disjoint i32 %shl8, 32768
  %shr = ashr i32 %add, %bits
  br label %if.end39

if.else11:                                        ; preds = %entry
  %cmp12 = icmp sgt i32 %bits, 15
  br i1 %cmp12, label %if.end39, label %if.else14

if.else14:                                        ; preds = %if.else11
  %spec.select = tail call i32 @llvm.abs.i32(i32 %val, i1 true)
  %cmp19 = icmp eq i32 %val, 0
  br i1 %cmp19, label %if.end33, label %if.else21

if.else21:                                        ; preds = %if.else14
  %sub22 = add nsw i32 %bits, -1
  %notmask16 = shl nsw i32 -1, %sub22
  %sub24 = xor i32 %notmask16, -1
  %cmp25.not = icmp ult i32 %spec.select, %sub24
  br i1 %cmp25.not, label %if.else27, label %if.end33

if.else27:                                        ; preds = %if.else21
  %shl28 = shl i32 %spec.select, 15
  %add29 = or disjoint i32 %shl28, 16384
  %shr31 = ashr i32 %add29, %sub22
  br label %if.end33

if.end33:                                         ; preds = %if.else21, %if.else14, %if.else27
  %unq.0 = phi i32 [ %shr31, %if.else27 ], [ 0, %if.else14 ], [ 32767, %if.else21 ]
  %sub36 = sub nsw i32 0, %unq.0
  %cmp1518 = icmp slt i32 %val, 0
  %spec.select17 = select i1 %cmp1518, i32 %sub36, i32 %unq.0
  br label %if.end39

if.end39:                                         ; preds = %if.end33, %if.else11, %if.else4, %if.else, %if.then, %if.else7
  %unq.1 = phi i32 [ %shr, %if.else7 ], [ %val, %if.then ], [ 0, %if.else ], [ 65535, %if.else4 ], [ %val, %if.else11 ], [ %spec.select17, %if.end33 ]
  ret i32 %unq.1
}